#include <math.h>
#include <stdio.h>
#include <stdlib.h>
#include <string.h>

int main()
{
		int i,j,n,a[20000],b[20000];
	scanf("%d",&n);
	scanf("%d",&a[1]);
	printf("%d",a[1]);
	for(i=2;i<=n;++i)
	{
		scanf("%d",&a[i]);
		for(j=1;j<=i-1;++j)
		{
			b[i-1]=0;
			b[j]=a[j]-a[i];
			if(b[j]==0)break;
		}
		if(b[i-1]!=0)printf(" %d",a[i]);
	}
	return 0;
}
