; ModuleID = '13/911.c'
source_filename = "13/911.c"
target datalayout = "e-m:e-p270:32:32-p271:32:32-p272:64:64-i64:64-f80:128-n8:16:32:64-S128"
target triple = "x86_64-pc-linux-gnu"

@.str = private unnamed_addr constant [3 x i8] c"%d\00", align 1
@.str.1 = private unnamed_addr constant [4 x i8] c" %d\00", align 1

; Function Attrs: noinline nounwind uwtable
define dso_local i32 @main() #0 {
  %1 = alloca i32, align 4
  %2 = alloca i32, align 4
  %3 = alloca i32, align 4
  %4 = alloca i32, align 4
  %5 = alloca [20000 x i32], align 16
  %6 = alloca [20000 x i32], align 16
  store i32 0, i32* %1, align 4
  %7 = call i32 (i8*, ...) @__isoc99_scanf(i8* getelementptr inbounds ([3 x i8], [3 x i8]* @.str, i64 0, i64 0), i32* %4)
  %8 = getelementptr inbounds [20000 x i32], [20000 x i32]* %5, i64 0, i64 1
  %9 = call i32 (i8*, ...) @__isoc99_scanf(i8* getelementptr inbounds ([3 x i8], [3 x i8]* @.str, i64 0, i64 0), i32* %8)
  %10 = getelementptr inbounds [20000 x i32], [20000 x i32]* %5, i64 0, i64 1
  %11 = load i32, i32* %10, align 4
  %12 = call i32 (i8*, ...) @printf(i8* getelementptr inbounds ([3 x i8], [3 x i8]* @.str, i64 0, i64 0), i32 %11)
  store i32 2, i32* %2, align 4
  br label %13

13:                                               ; preds = %68, %0
  %14 = load i32, i32* %2, align 4
  %15 = load i32, i32* %4, align 4
  %16 = icmp sle i32 %14, %15
  br i1 %16, label %17, label %71

17:                                               ; preds = %13
  %18 = load i32, i32* %2, align 4
  %19 = sext i32 %18 to i64
  %20 = getelementptr inbounds [20000 x i32], [20000 x i32]* %5, i64 0, i64 %19
  %21 = call i32 (i8*, ...) @__isoc99_scanf(i8* getelementptr inbounds ([3 x i8], [3 x i8]* @.str, i64 0, i64 0), i32* %20)
  store i32 1, i32* %3, align 4
  br label %22

22:                                               ; preds = %51, %17
  %23 = load i32, i32* %3, align 4
  %24 = load i32, i32* %2, align 4
  %25 = sub nsw i32 %24, 1
  %26 = icmp sle i32 %23, %25
  br i1 %26, label %27, label %54

27:                                               ; preds = %22
  %28 = load i32, i32* %2, align 4
  %29 = sub nsw i32 %28, 1
  %30 = sext i32 %29 to i64
  %31 = getelementptr inbounds [20000 x i32], [20000 x i32]* %6, i64 0, i64 %30
  store i32 0, i32* %31, align 4
  %32 = load i32, i32* %3, align 4
  %33 = sext i32 %32 to i64
  %34 = getelementptr inbounds [20000 x i32], [20000 x i32]* %5, i64 0, i64 %33
  %35 = load i32, i32* %34, align 4
  %36 = load i32, i32* %2, align 4
  %37 = sext i32 %36 to i64
  %38 = getelementptr inbounds [20000 x i32], [20000 x i32]* %5, i64 0, i64 %37
  %39 = load i32, i32* %38, align 4
  %40 = sub nsw i32 %35, %39
  %41 = load i32, i32* %3, align 4
  %42 = sext i32 %41 to i64
  %43 = getelementptr inbounds [20000 x i32], [20000 x i32]* %6, i64 0, i64 %42
  store i32 %40, i32* %43, align 4
  %44 = load i32, i32* %3, align 4
  %45 = sext i32 %44 to i64
  %46 = getelementptr inbounds [20000 x i32], [20000 x i32]* %6, i64 0, i64 %45
  %47 = load i32, i32* %46, align 4
  %48 = icmp eq i32 %47, 0
  br i1 %48, label %49, label %50

49:                                               ; preds = %27
  br label %54

50:                                               ; preds = %27
  br label %51

51:                                               ; preds = %50
  %52 = load i32, i32* %3, align 4
  %53 = add nsw i32 %52, 1
  store i32 %53, i32* %3, align 4
  br label %22

54:                                               ; preds = %49, %22
  %55 = load i32, i32* %2, align 4
  %56 = sub nsw i32 %55, 1
  %57 = sext i32 %56 to i64
  %58 = getelementptr inbounds [20000 x i32], [20000 x i32]* %6, i64 0, i64 %57
  %59 = load i32, i32* %58, align 4
  %60 = icmp ne i32 %59, 0
  br i1 %60, label %61, label %67

61:                                               ; preds = %54
  %62 = load i32, i32* %2, align 4
  %63 = sext i32 %62 to i64
  %64 = getelementptr inbounds [20000 x i32], [20000 x i32]* %5, i64 0, i64 %63
  %65 = load i32, i32* %64, align 4
  %66 = call i32 (i8*, ...) @printf(i8* getelementptr inbounds ([4 x i8], [4 x i8]* @.str.1, i64 0, i64 0), i32 %65)
  br label %67

67:                                               ; preds = %61, %54
  br label %68

68:                                               ; preds = %67
  %69 = load i32, i32* %2, align 4
  %70 = add nsw i32 %69, 1
  store i32 %70, i32* %2, align 4
  br label %13

71:                                               ; preds = %13
  ret i32 0
}

declare dso_local i32 @__isoc99_scanf(i8*, ...) #1

declare dso_local i32 @printf(i8*, ...) #1


!llvm.module.flags = !{!0}
!llvm.ident = !{!1}

!0 = !{i32 1, !"wchar_size", i32 4}
!1 = !{!"clang version 10.0.0-4ubuntu1 "}
